; Function Attrs: nounwind uwtable
define hidden i32 @mbedtls_psa_asymmetric_decrypt(ptr noundef readonly captures(none) %0, ptr noundef %1, i64 noundef %2, i32 noundef %3, ptr noundef %4, i64 noundef %5, ptr noundef %6, i64 noundef %7, ptr noundef %8, i64 noundef %9, ptr noundef initializes((0, 8)) %10) local_unnamed_addr #0 {
  %12 = alloca ptr, align 8
  store i64 0, ptr %10, align 8, !tbaa !13
  %13 = load i16, ptr %0, align 4, !tbaa !8
  %14 = icmp eq i16 %13, 28673
  br i1 %14, label %15, label %37

15:                                               ; preds = %11
  call void @llvm.lifetime.start.p0(i64 8, ptr nonnull %12) #9
  %16 = call i32 @mbedtls_psa_rsa_load_representation(i16 noundef zeroext 28673, ptr noundef %1, i64 noundef %2, ptr noundef nonnull %12)
  %.not = icmp eq i32 %16, 0
  %.pre = load ptr, ptr %12, align 8, !tbaa !3
  br i1 %.not, label %17, label %36

17:                                               ; preds = %15
  %18 = tail call i64 @mbedtls_rsa_get_len(ptr noundef %.pre) #9
  %.not24 = icmp eq i64 %5, %18
  br i1 %.not24, label %19, label %36

19:                                               ; preds = %17
  %20 = icmp eq i32 %3, 117441024
  br i1 %20, label %21, label %23

21:                                               ; preds = %19
  %22 = tail call i32 @mbedtls_rsa_pkcs1_decrypt(ptr noundef %.pre, ptr noundef nonnull @mbedtls_psa_get_random, ptr noundef null, ptr noundef nonnull %10, ptr noundef %4, ptr noundef %8, i64 noundef %9) #9
  br label %.sink.split

23:                                               ; preds = %19
  %24 = and i32 %3, -256
  %25 = icmp eq i32 %24, 117441280
  br i1 %25, label %26, label %36

26:                                               ; preds = %23
  %27 = and i32 %3, 255
  %28 = tail call ptr @mbedtls_md_info_from_type(i32 noundef %27) #9
  %29 = icmp eq ptr %28, null
  br i1 %29, label %psa_rsa_oaep_set_padding_mode.exit, label %30

30:                                               ; preds = %26
  %31 = tail call i32 @mbedtls_rsa_set_padding(ptr noundef %.pre, i32 noundef 1, i32 noundef %27) #9
  br label %psa_rsa_oaep_set_padding_mode.exit

psa_rsa_oaep_set_padding_mode.exit:               ; preds = %26, %30
  %.0.i = phi i32 [ %31, %30 ], [ -134, %26 ]
  %32 = tail call i32 @mbedtls_to_psa_error(i32 noundef %.0.i) #9
  %.not25 = icmp eq i32 %32, 0
  br i1 %.not25, label %33, label %36

33:                                               ; preds = %psa_rsa_oaep_set_padding_mode.exit
  %34 = tail call i32 @mbedtls_rsa_rsaes_oaep_decrypt(ptr noundef %.pre, ptr noundef nonnull @mbedtls_psa_get_random, ptr noundef null, ptr noundef %6, i64 noundef %7, ptr noundef nonnull %10, ptr noundef %4, ptr noundef %8, i64 noundef %9) #9
  br label %.sink.split

.sink.split:                                      ; preds = %33, %21
  %.sink = phi i32 [ %22, %21 ], [ %34, %33 ]
  %35 = tail call i32 @mbedtls_to_psa_error(i32 noundef %.sink) #9
  br label %36

36:                                               ; preds = %.sink.split, %23, %17, %psa_rsa_oaep_set_padding_mode.exit, %15
  %.0 = phi i32 [ %16, %15 ], [ %32, %psa_rsa_oaep_set_padding_mode.exit ], [ -135, %17 ], [ -135, %23 ], [ %35, %.sink.split ]
  tail call void @mbedtls_rsa_free(ptr noundef %.pre) #9
  tail call void @free(ptr noundef %.pre) #9
  call void @llvm.lifetime.end.p0(i64 8, ptr nonnull %12) #9
  br label %37

37:                                               ; preds = %11, %36
  %.1 = phi i32 [ %.0, %36 ], [ -134, %11 ]
  ret i32 %.1
}